target datalayout = "e-m:e-p270:32:32-p271:32:32-p272:64:64-i64:64-i128:128-f80:128-n8:16:32:64-S128"
target triple = "x86_64-pc-linux-gnu"

%struct._packet_info = type { ptr, ptr, i32, i32, %struct.nstime_t, %struct.nstime_t, %struct.nstime_t, i8, ptr, ptr, ptr, ptr, %struct._address, %struct._address, %struct._address, %struct._address, %struct._address, %struct._address, i32, ptr, i8, [3 x i8], %struct.anon, i32, i32, i32, i32, ptr, i8, ptr, ptr, i16, i16, i32, i32, i16, i32, i32, ptr, ptr, ptr, i8, i8, i16, i16, i16, i32, i16, i16, ptr, ptr, ptr, ptr, ptr, i32, i32 }
%struct.nstime_t = type { i64, i32 }
%struct._address = type { i32, i32, ptr, ptr }
%struct.anon = type { i8, [3 x i8] }

@hf_control = internal global i32 0, align 4
@hf_control_len = internal global i32 0, align 4
@ett_ircomm = internal global i32 0, align 4
@ett_ircomm_ctrl = internal global i32 0, align 4
@.str.11 = private unnamed_addr constant [7 x i8] c"IrCOMM\00", align 1
@proto_ircomm = internal global i32 0, align 4
@.str.29 = private unnamed_addr constant [2 x i8] c"s\00", align 1
@.str.30 = private unnamed_addr constant [1 x i8] zeroinitializer, align 1
@.str.31 = private unnamed_addr constant [29 x i8] c"Clen=%d, UserData: %d byte%s\00", align 1
@.str.32 = private unnamed_addr constant [8 x i8] c"Clen=%d\00", align 1

; Function Attrs: null_pointer_is_valid sspstrong uwtable
define internal i32 @dissect_cooked_ircomm(ptr noundef %0, ptr noundef %1, ptr noundef %2, ptr noundef %3) #0 {
  %5 = alloca i32, align 4
  %6 = alloca ptr, align 8
  %7 = alloca ptr, align 8
  %8 = alloca ptr, align 8
  %9 = alloca ptr, align 8
  %10 = alloca ptr, align 8
  %11 = alloca ptr, align 8
  %12 = alloca ptr, align 8
  %13 = alloca i32, align 4
  %14 = alloca i32, align 4
  %15 = alloca i32, align 4
  %16 = alloca i32, align 4
  store ptr %0, ptr %6, align 8
  store ptr %1, ptr %7, align 8
  store ptr %2, ptr %8, align 8
  store ptr %3, ptr %9, align 8
  call void @llvm.lifetime.start.p0(i64 8, ptr %10) #4
  call void @llvm.lifetime.start.p0(i64 8, ptr %11) #4
  call void @llvm.lifetime.start.p0(i64 8, ptr %12) #4
  call void @llvm.lifetime.start.p0(i64 4, ptr %13) #4
  store i32 0, ptr %13, align 4
  call void @llvm.lifetime.start.p0(i64 4, ptr %14) #4
  call void @llvm.lifetime.start.p0(i64 4, ptr %15) #4
  %17 = load ptr, ptr %6, align 8
  %18 = call i32 @tvb_reported_length(ptr noundef %17)
  store i32 %18, ptr %15, align 4
  %19 = load i32, ptr %15, align 4
  %20 = icmp eq i32 %19, 0
  br i1 %20, label %21, label %23

21:                                               ; preds = %4
  %22 = load i32, ptr %15, align 4
  store i32 %22, ptr %5, align 4
  store i32 1, ptr %16, align 4
  br label %92

23:                                               ; preds = %4
  %24 = load ptr, ptr %7, align 8
  %25 = getelementptr inbounds nuw %struct._packet_info, ptr %24, i32 0, i32 1
  %26 = load ptr, ptr %25, align 8
  call void @col_set_str(ptr noundef %26, i32 noundef 35, ptr noundef @.str.11)
  %27 = load ptr, ptr %6, align 8
  %28 = load i32, ptr %13, align 4
  %29 = call zeroext i8 @tvb_get_uint8(ptr noundef %27, i32 noundef %28)
  %30 = zext i8 %29 to i32
  store i32 %30, ptr %14, align 4
  %31 = load i32, ptr %14, align 4
  %32 = add i32 1, %31
  %33 = load i32, ptr %15, align 4
  %34 = sub i32 %33, %32
  store i32 %34, ptr %15, align 4
  %35 = load i32, ptr %15, align 4
  %36 = icmp sgt i32 %35, 0
  br i1 %36, label %37, label %46

37:                                               ; preds = %23
  %38 = load ptr, ptr %7, align 8
  %39 = getelementptr inbounds nuw %struct._packet_info, ptr %38, i32 0, i32 1
  %40 = load ptr, ptr %39, align 8
  %41 = load i32, ptr %14, align 4
  %42 = load i32, ptr %15, align 4
  %43 = load i32, ptr %15, align 4
  %44 = icmp sgt i32 %43, 1
  %45 = select i1 %44, ptr @.str.29, ptr @.str.30
  call void (ptr, i32, ptr, ...) @col_add_fstr(ptr noundef %40, i32 noundef 25, ptr noundef @.str.31, i32 noundef %41, i32 noundef %42, ptr noundef %45)
  br label %51

46:                                               ; preds = %23
  %47 = load ptr, ptr %7, align 8
  %48 = getelementptr inbounds nuw %struct._packet_info, ptr %47, i32 0, i32 1
  %49 = load ptr, ptr %48, align 8
  %50 = load i32, ptr %14, align 4
  call void (ptr, i32, ptr, ...) @col_add_fstr(ptr noundef %49, i32 noundef 25, ptr noundef @.str.32, i32 noundef %50)
  br label %51

51:                                               ; preds = %46, %37
  %52 = load ptr, ptr %8, align 8
  %53 = load i32, ptr @proto_ircomm, align 4
  %54 = load ptr, ptr %6, align 8
  %55 = call ptr @proto_tree_add_item(ptr noundef %52, i32 noundef %53, ptr noundef %54, i32 noundef 0, i32 noundef -1, i32 noundef 0)
  store ptr %55, ptr %10, align 8
  %56 = load ptr, ptr %10, align 8
  %57 = load i32, ptr @ett_ircomm, align 4
  %58 = call ptr @proto_item_add_subtree(ptr noundef %56, i32 noundef %57)
  store ptr %58, ptr %11, align 8
  %59 = load ptr, ptr %11, align 8
  %60 = load i32, ptr @hf_control, align 4
  %61 = load ptr, ptr %6, align 8
  %62 = load i32, ptr %14, align 4
  %63 = add i32 %62, 1
  %64 = call ptr @proto_tree_add_item(ptr noundef %59, i32 noundef %60, ptr noundef %61, i32 noundef 0, i32 noundef %63, i32 noundef 0)
  store ptr %64, ptr %10, align 8
  %65 = load ptr, ptr %10, align 8
  %66 = load i32, ptr @ett_ircomm_ctrl, align 4
  %67 = call ptr @proto_item_add_subtree(ptr noundef %65, i32 noundef %66)
  store ptr %67, ptr %12, align 8
  %68 = load ptr, ptr %12, align 8
  %69 = load i32, ptr @hf_control_len, align 4
  %70 = load ptr, ptr %6, align 8
  %71 = load i32, ptr %13, align 4
  %72 = call ptr @proto_tree_add_item(ptr noundef %68, i32 noundef %69, ptr noundef %70, i32 noundef %71, i32 noundef 1, i32 noundef 0)
  %73 = load i32, ptr %13, align 4
  %74 = add i32 %73, 1
  store i32 %74, ptr %13, align 4
  %75 = load ptr, ptr %6, align 8
  %76 = load i32, ptr %13, align 4
  %77 = load i32, ptr %14, align 4
  %78 = call ptr @tvb_new_subset_length(ptr noundef %75, i32 noundef %76, i32 noundef %77)
  %79 = load ptr, ptr %7, align 8
  %80 = load ptr, ptr %12, align 8
  %81 = call i32 @call_data_dissector(ptr noundef %78, ptr noundef %79, ptr noundef %80)
  %82 = load i32, ptr %14, align 4
  %83 = load i32, ptr %13, align 4
  %84 = add i32 %83, %82
  store i32 %84, ptr %13, align 4
  %85 = load ptr, ptr %6, align 8
  %86 = load i32, ptr %13, align 4
  %87 = call ptr @tvb_new_subset_remaining(ptr noundef %85, i32 noundef %86)
  %88 = load ptr, ptr %7, align 8
  %89 = load ptr, ptr %11, align 8
  %90 = call i32 @call_data_dissector(ptr noundef %87, ptr noundef %88, ptr noundef %89)
  %91 = load i32, ptr %15, align 4
  store i32 %91, ptr %5, align 4
  store i32 1, ptr %16, align 4
  br label %92

92:                                               ; preds = %51, %21
  call void @llvm.lifetime.end.p0(i64 4, ptr %15) #4
  call void @llvm.lifetime.end.p0(i64 4, ptr %14) #4
  call void @llvm.lifetime.end.p0(i64 4, ptr %13) #4
  call void @llvm.lifetime.end.p0(i64 8, ptr %12) #4
  call void @llvm.lifetime.end.p0(i64 8, ptr %11) #4
  call void @llvm.lifetime.end.p0(i64 8, ptr %10) #4
  %93 = load i32, ptr %5, align 4
  ret i32 %93
}