; Function Attrs: null_pointer_is_valid sspstrong uwtable
define internal i32 @dissect_cooked_ircomm(ptr noundef %0, ptr noundef %1, ptr noundef %2, ptr readnone captures(none) %3) #0 {
  %5 = tail call i32 @tvb_reported_length(ptr noundef %0)
  %6 = icmp eq i32 %5, 0
  br i1 %6, label %34, label %7

7:                                                ; preds = %4
  %8 = getelementptr inbounds nuw i8, ptr %1, i64 8
  %9 = load ptr, ptr %8, align 8
  tail call void @col_set_str(ptr noundef %9, i32 noundef 35, ptr noundef nonnull @.str.11)
  %10 = tail call zeroext i8 @tvb_get_uint8(ptr noundef %0, i32 noundef 0)
  %11 = zext i8 %10 to i32
  %12 = add nuw nsw i32 %11, 1
  %13 = sub i32 %5, %12
  %14 = icmp sgt i32 %13, 0
  %15 = load ptr, ptr %8, align 8
  br i1 %14, label %16, label %18

16:                                               ; preds = %7
  %.not = icmp eq i32 %13, 1
  %17 = select i1 %.not, ptr @.str.30, ptr @.str.29
  tail call void (ptr, i32, ptr, ...) @col_add_fstr(ptr noundef %15, i32 noundef 25, ptr noundef nonnull @.str.31, i32 noundef %11, i32 noundef %13, ptr noundef nonnull %17)
  br label %19

18:                                               ; preds = %7
  tail call void (ptr, i32, ptr, ...) @col_add_fstr(ptr noundef %15, i32 noundef 25, ptr noundef nonnull @.str.32, i32 noundef %11)
  br label %19

19:                                               ; preds = %18, %16
  %20 = load i32, ptr @proto_ircomm, align 4
  %21 = tail call ptr @proto_tree_add_item(ptr noundef %2, i32 noundef %20, ptr noundef %0, i32 noundef 0, i32 noundef -1, i32 noundef 0)
  %22 = load i32, ptr @ett_ircomm, align 4
  %23 = tail call ptr @proto_item_add_subtree(ptr noundef %21, i32 noundef %22)
  %24 = load i32, ptr @hf_control, align 4
  %25 = tail call ptr @proto_tree_add_item(ptr noundef %23, i32 noundef %24, ptr noundef %0, i32 noundef 0, i32 noundef %12, i32 noundef 0)
  %26 = load i32, ptr @ett_ircomm_ctrl, align 4
  %27 = tail call ptr @proto_item_add_subtree(ptr noundef %25, i32 noundef %26)
  %28 = load i32, ptr @hf_control_len, align 4
  %29 = tail call ptr @proto_tree_add_item(ptr noundef %27, i32 noundef %28, ptr noundef %0, i32 noundef 0, i32 noundef 1, i32 noundef 0)
  %30 = tail call ptr @tvb_new_subset_length(ptr noundef %0, i32 noundef 1, i32 noundef %11)
  %31 = tail call i32 @call_data_dissector(ptr noundef %30, ptr noundef %1, ptr noundef %27)
  %32 = tail call ptr @tvb_new_subset_remaining(ptr noundef %0, i32 noundef %12)
  %33 = tail call i32 @call_data_dissector(ptr noundef %32, ptr noundef %1, ptr noundef %23)
  br label %34

34:                                               ; preds = %4, %19
  %.0 = phi i32 [ %13, %19 ], [ 0, %4 ]
  ret i32 %.0
}